target datalayout = "e-m:e-p270:32:32-p271:32:32-p272:64:64-i64:64-i128:128-f80:128-n8:16:32:64-S128"
target triple = "x86_64-pc-linux-gnu"

%"class.(anonymous namespace)::SelectionDAGLegalize" = type { ptr, ptr, ptr, ptr, ptr }
%"class.llvm::SDNode" = type { %"class.llvm::FoldingSetBase::Node", %"class.llvm::ilist_node", i32, %"struct.llvm::SDNodeFlags", %union.anon, i16, i32, ptr, ptr, ptr, i16, i16, i32, %"class.llvm::DebugLoc", i32, i32 }
%"class.llvm::FoldingSetBase::Node" = type { ptr }
%"class.llvm::ilist_node" = type { %"class.llvm::ilist_node_impl" }
%"class.llvm::ilist_node_impl" = type { %"class.llvm::ilist_node_base" }
%"class.llvm::ilist_node_base" = type { %"class.llvm::ilist_detail::node_base_prevnext" }
%"class.llvm::ilist_detail::node_base_prevnext" = type { ptr, ptr }
%"struct.llvm::SDNodeFlags" = type { i16 }
%union.anon = type { %"class.llvm::SDNode::LSBaseSDNodeBitfields" }
%"class.llvm::SDNode::LSBaseSDNodeBitfields" = type { i16 }
%"class.llvm::DebugLoc" = type { %"class.llvm::TypedTrackingMDRef" }
%"class.llvm::TypedTrackingMDRef" = type { %"class.llvm::TrackingMDRef" }
%"class.llvm::TrackingMDRef" = type { ptr }
%"class.llvm::SDValue" = type <{ ptr, i32, [4 x i8] }>
%"class.llvm::SmallPtrSetImplBase" = type <{ ptr, ptr, i32, i32, i32, [4 x i8] }>

; Function Attrs: mustprogress nounwind uwtable
define linkonce_odr hidden noundef ptr @_ZN4llvm19SmallPtrSetImplBase18getTombstoneMarkerEv() #0 comdat align 2 {
  ret ptr inttoptr (i64 -2 to ptr)
}

; Function Attrs: mustprogress nounwind uwtable
define linkonce_odr hidden void @_ZN4llvm14DebugEpochBase14incrementEpochEv(ptr noundef nonnull align 1 dereferenceable(1) %0) #0 comdat align 2 {
  %2 = alloca ptr, align 8
  store ptr %0, ptr %2, align 8
  ret void
}

; Function Attrs: mustprogress nounwind uwtable
define linkonce_odr hidden noundef zeroext i1 @_ZNK4llvm19SmallPtrSetImplBase7isSmallEv(ptr noundef nonnull align 8 dereferenceable(28) %0) #0 comdat align 2 {
  %2 = alloca ptr, align 8
  store ptr %0, ptr %2, align 8
  %3 = load ptr, ptr %2, align 8
  %4 = getelementptr inbounds nuw %"class.llvm::SmallPtrSetImplBase", ptr %3, i32 0, i32 1
  %5 = load ptr, ptr %4, align 8
  %6 = getelementptr inbounds nuw %"class.llvm::SmallPtrSetImplBase", ptr %3, i32 0, i32 0
  %7 = load ptr, ptr %6, align 8
  %8 = icmp eq ptr %5, %7
  ret i1 %8
}

; Function Attrs: mustprogress nounwind uwtable
define linkonce_odr hidden noundef zeroext i1 @_ZN4llvm19SmallPtrSetImplBase9erase_impEPKv(ptr noundef nonnull align 8 dereferenceable(28) %0, ptr noundef %1) #0 comdat align 2 {
  %3 = alloca i1, align 1
  %4 = alloca ptr, align 8
  %5 = alloca ptr, align 8
  %6 = alloca ptr, align 8
  %7 = alloca ptr, align 8
  %8 = alloca ptr, align 8
  store ptr %0, ptr %4, align 8
  store ptr %1, ptr %5, align 8
  %9 = load ptr, ptr %4, align 8
  %10 = call noundef zeroext i1 @_ZNK4llvm19SmallPtrSetImplBase7isSmallEv(ptr noundef nonnull align 8 dereferenceable(28) %9)
  br i1 %10, label %11, label %44

11:                                               ; preds = %2
  %12 = getelementptr inbounds nuw %"class.llvm::SmallPtrSetImplBase", ptr %9, i32 0, i32 0
  %13 = load ptr, ptr %12, align 8
  store ptr %13, ptr %6, align 8
  %14 = getelementptr inbounds nuw %"class.llvm::SmallPtrSetImplBase", ptr %9, i32 0, i32 0
  %15 = load ptr, ptr %14, align 8
  %16 = getelementptr inbounds nuw %"class.llvm::SmallPtrSetImplBase", ptr %9, i32 0, i32 3
  %17 = load i32, ptr %16, align 4
  %18 = zext i32 %17 to i64
  %19 = getelementptr inbounds ptr, ptr %15, i64 %18
  store ptr %19, ptr %7, align 8
  br label %20

20:                                               ; preds = %40, %11
  %21 = load ptr, ptr %6, align 8
  %22 = load ptr, ptr %7, align 8
  %23 = icmp ne ptr %21, %22
  br i1 %23, label %24, label %43

24:                                               ; preds = %20
  %25 = load ptr, ptr %6, align 8
  %26 = load ptr, ptr %25, align 8
  %27 = load ptr, ptr %5, align 8
  %28 = icmp eq ptr %26, %27
  br i1 %28, label %29, label %39

29:                                               ; preds = %24
  %30 = getelementptr inbounds nuw %"class.llvm::SmallPtrSetImplBase", ptr %9, i32 0, i32 0
  %31 = load ptr, ptr %30, align 8
  %32 = getelementptr inbounds nuw %"class.llvm::SmallPtrSetImplBase", ptr %9, i32 0, i32 3
  %33 = load i32, ptr %32, align 4
  %34 = add i32 %33, -1
  store i32 %34, ptr %32, align 4
  %35 = zext i32 %34 to i64
  %36 = getelementptr inbounds ptr, ptr %31, i64 %35
  %37 = load ptr, ptr %36, align 8
  %38 = load ptr, ptr %6, align 8
  store ptr %37, ptr %38, align 8
  call void @_ZN4llvm14DebugEpochBase14incrementEpochEv(ptr noundef nonnull align 1 dereferenceable(1) %9)
  store i1 true, ptr %3, align 1
  br label %56

39:                                               ; preds = %24
  br label %40

40:                                               ; preds = %39
  %41 = load ptr, ptr %6, align 8
  %42 = getelementptr inbounds ptr, ptr %41, i32 1
  store ptr %42, ptr %6, align 8
  br label %20, !llvm.loop !27

43:                                               ; preds = %20
  store i1 false, ptr %3, align 1
  br label %56

44:                                               ; preds = %2
  %45 = load ptr, ptr %5, align 8
  %46 = call noundef ptr @_ZNK4llvm19SmallPtrSetImplBase6doFindEPKv(ptr noundef nonnull align 8 dereferenceable(28) %9, ptr noundef %45)
  store ptr %46, ptr %8, align 8
  %47 = load ptr, ptr %8, align 8
  %48 = icmp ne ptr %47, null
  br i1 %48, label %50, label %49

49:                                               ; preds = %44
  store i1 false, ptr %3, align 1
  br label %56

50:                                               ; preds = %44
  %51 = call noundef ptr @_ZN4llvm19SmallPtrSetImplBase18getTombstoneMarkerEv()
  %52 = load ptr, ptr %8, align 8
  store ptr %51, ptr %52, align 8
  %53 = getelementptr inbounds nuw %"class.llvm::SmallPtrSetImplBase", ptr %9, i32 0, i32 4
  %54 = load i32, ptr %53, align 8
  %55 = add i32 %54, 1
  store i32 %55, ptr %53, align 8
  call void @_ZN4llvm14DebugEpochBase14incrementEpochEv(ptr noundef nonnull align 1 dereferenceable(1) %9)
  store i1 true, ptr %3, align 1
  br label %56

56:                                               ; preds = %50, %49, %43, %29
  %57 = load i1, ptr %3, align 1
  ret i1 %57
}

; Function Attrs: mustprogress nounwind uwtable
define linkonce_odr hidden noundef ptr @_ZN4llvm21PointerLikeTypeTraitsIPNS_6SDNodeEE16getAsVoidPointerES2_(ptr noundef %0) #0 comdat align 2 {
  %2 = alloca ptr, align 8
  store ptr %0, ptr %2, align 8
  %3 = load ptr, ptr %2, align 8
  ret ptr %3
}

; Function Attrs: mustprogress nounwind uwtable
define linkonce_odr hidden noundef zeroext i1 @_ZN4llvm15SmallPtrSetImplIPNS_6SDNodeEE5eraseES2_(ptr noundef nonnull align 8 dereferenceable(28) %0, ptr noundef %1) #0 comdat align 2 {
  %3 = alloca ptr, align 8
  %4 = alloca ptr, align 8
  store ptr %0, ptr %3, align 8
  store ptr %1, ptr %4, align 8
  %5 = load ptr, ptr %3, align 8
  %6 = load ptr, ptr %4, align 8
  %7 = call noundef ptr @_ZN4llvm21PointerLikeTypeTraitsIPNS_6SDNodeEE16getAsVoidPointerES2_(ptr noundef %6)
  %8 = call noundef zeroext i1 @_ZN4llvm19SmallPtrSetImplBase9erase_impEPKv(ptr noundef nonnull align 8 dereferenceable(28) %5, ptr noundef %7)
  ret i1 %8
}

; Function Attrs: mustprogress nounwind uwtable
define internal void @_ZN12_GLOBAL__N_120SelectionDAGLegalize12ReplacedNodeEPN4llvm6SDNodeE(ptr noundef nonnull align 8 dereferenceable(40) %0, ptr noundef %1) #0 align 2 {
  %3 = alloca ptr, align 8
  %4 = alloca ptr, align 8
  store ptr %0, ptr %3, align 8
  store ptr %1, ptr %4, align 8
  %5 = load ptr, ptr %3, align 8
  %6 = getelementptr inbounds nuw %"class.(anonymous namespace)::SelectionDAGLegalize", ptr %5, i32 0, i32 3
  %7 = load ptr, ptr %6, align 8
  %8 = load ptr, ptr %4, align 8
  %9 = call noundef zeroext i1 @_ZN4llvm15SmallPtrSetImplIPNS_6SDNodeEE5eraseES2_(ptr noundef nonnull align 8 dereferenceable(28) %7, ptr noundef %8)
  %10 = getelementptr inbounds nuw %"class.(anonymous namespace)::SelectionDAGLegalize", ptr %5, i32 0, i32 4
  %11 = load ptr, ptr %10, align 8
  %12 = icmp ne ptr %11, null
  br i1 %12, label %13, label %17

13:                                               ; preds = %2
  %14 = getelementptr inbounds nuw %"class.(anonymous namespace)::SelectionDAGLegalize", ptr %5, i32 0, i32 4
  %15 = load ptr, ptr %14, align 8
  %16 = call noundef zeroext i1 @_ZN4llvm9SetVectorIPNS_6SDNodeENS_11SmallVectorIS2_Lj16EEENS_8DenseSetIS2_NS_12DenseMapInfoIS2_vEEEELj16EE6insertERKS2_(ptr noundef nonnull align 8 dereferenceable(168) %15, ptr noundef nonnull align 8 dereferenceable(8) %4)
  br label %17

17:                                               ; preds = %13, %2
  ret void
}

; Function Attrs: mustprogress nounwind uwtable
define linkonce_odr hidden noundef ptr @_ZNK4llvm7SDValue7getNodeEv(ptr noundef nonnull align 8 dereferenceable(12) %0) #0 comdat align 2 {
  %2 = alloca ptr, align 8
  store ptr %0, ptr %2, align 8
  %3 = load ptr, ptr %2, align 8
  %4 = getelementptr inbounds nuw %"class.llvm::SDValue", ptr %3, i32 0, i32 0
  %5 = load ptr, ptr %4, align 8
  ret ptr %5
}

; Function Attrs: mustprogress nounwind uwtable
define linkonce_odr hidden noundef i32 @_ZNK4llvm6SDNode12getNumValuesEv(ptr noundef nonnull align 8 dereferenceable(88) %0) #0 comdat align 2 {
  %2 = alloca ptr, align 8
  store ptr %0, ptr %2, align 8
  %3 = load ptr, ptr %2, align 8
  %4 = getelementptr inbounds nuw %"class.llvm::SDNode", ptr %3, i32 0, i32 11
  %5 = load i16, ptr %4, align 2
  %6 = zext i16 %5 to i32
  ret i32 %6
}

; Function Attrs: mustprogress nounwind uwtable
define internal void @_ZN12_GLOBAL__N_120SelectionDAGLegalize11ReplaceNodeEPN4llvm6SDNodeEPKNS1_7SDValueE(ptr noundef nonnull align 8 dereferenceable(40) %0, ptr noundef %1, ptr noundef %2) #0 align 2 {
  %4 = alloca ptr, align 8
  %5 = alloca ptr, align 8
  %6 = alloca ptr, align 8
  %7 = alloca i32, align 4
  %8 = alloca i32, align 4
  %9 = alloca ptr, align 8
  store ptr %0, ptr %4, align 8
  store ptr %1, ptr %5, align 8
  store ptr %2, ptr %6, align 8
  %10 = load ptr, ptr %4, align 8
  br label %11

11:                                               ; preds = %3
  br label %12

12:                                               ; preds = %11
  %13 = getelementptr inbounds nuw %"class.(anonymous namespace)::SelectionDAGLegalize", ptr %10, i32 0, i32 2
  %14 = load ptr, ptr %13, align 8
  %15 = load ptr, ptr %5, align 8
  %16 = load ptr, ptr %6, align 8
  call void @_ZN4llvm12SelectionDAG18ReplaceAllUsesWithEPNS_6SDNodeEPKNS_7SDValueE(ptr noundef nonnull align 8 dereferenceable(904) %14, ptr noundef %15, ptr noundef %16)
  store i32 0, ptr %7, align 4
  %17 = load ptr, ptr %5, align 8
  %18 = call noundef i32 @_ZNK4llvm6SDNode12getNumValuesEv(ptr noundef nonnull align 8 dereferenceable(88) %17)
  store i32 %18, ptr %8, align 4
  br label %19

19:                                               ; preds = %39, %12
  %20 = load i32, ptr %7, align 4
  %21 = load i32, ptr %8, align 4
  %22 = icmp ne i32 %20, %21
  br i1 %22, label %23, label %42

23:                                               ; preds = %19
  br label %24

24:                                               ; preds = %23
  br label %25

25:                                               ; preds = %24
  %26 = getelementptr inbounds nuw %"class.(anonymous namespace)::SelectionDAGLegalize", ptr %10, i32 0, i32 4
  %27 = load ptr, ptr %26, align 8
  %28 = icmp ne ptr %27, null
  br i1 %28, label %29, label %38

29:                                               ; preds = %25
  %30 = getelementptr inbounds nuw %"class.(anonymous namespace)::SelectionDAGLegalize", ptr %10, i32 0, i32 4
  %31 = load ptr, ptr %30, align 8
  %32 = load ptr, ptr %6, align 8
  %33 = load i32, ptr %7, align 4
  %34 = zext i32 %33 to i64
  %35 = getelementptr inbounds %"class.llvm::SDValue", ptr %32, i64 %34
  %36 = call noundef ptr @_ZNK4llvm7SDValue7getNodeEv(ptr noundef nonnull align 8 dereferenceable(12) %35)
  store ptr %36, ptr %9, align 8
  %37 = call noundef zeroext i1 @_ZN4llvm9SetVectorIPNS_6SDNodeENS_11SmallVectorIS2_Lj16EEENS_8DenseSetIS2_NS_12DenseMapInfoIS2_vEEEELj16EE6insertERKS2_(ptr noundef nonnull align 8 dereferenceable(168) %31, ptr noundef nonnull align 8 dereferenceable(8) %9)
  br label %38

38:                                               ; preds = %29, %25
  br label %39

39:                                               ; preds = %38
  %40 = load i32, ptr %7, align 4
  %41 = add i32 %40, 1
  store i32 %41, ptr %7, align 4
  br label %19, !llvm.loop !8

42:                                               ; preds = %19
  %43 = load ptr, ptr %5, align 8
  call void @_ZN12_GLOBAL__N_120SelectionDAGLegalize12ReplacedNodeEPN4llvm6SDNodeE(ptr noundef nonnull align 8 dereferenceable(40) %10, ptr noundef %43)
  ret void
}