; Function Attrs: mustprogress nounwind uwtable
define internal fastcc void @_ZN12_GLOBAL__N_120SelectionDAGLegalize11ReplaceNodeEPN4llvm6SDNodeEPKNS1_7SDValueE(ptr noundef nonnull readonly align 8 captures(none) dereferenceable(40) %0, ptr noundef %1, ptr noundef %2) unnamed_addr #0 align 2 {
  %4 = alloca ptr, align 8
  %5 = alloca ptr, align 8
  %6 = getelementptr inbounds nuw i8, ptr %0, i64 16
  %7 = load ptr, ptr %6, align 8
  tail call void @_ZN4llvm12SelectionDAG18ReplaceAllUsesWithEPNS_6SDNodeEPKNS_7SDValueE(ptr noundef nonnull align 8 dereferenceable(904) %7, ptr noundef %1, ptr noundef %2) #18
  %8 = getelementptr inbounds nuw i8, ptr %1, i64 66
  %9 = load i16, ptr %8, align 2
  %.not12 = icmp eq i16 %9, 0
  br i1 %.not12, label %._crit_edge, label %.lr.ph

.lr.ph:                                           ; preds = %3
  %10 = getelementptr inbounds nuw i8, ptr %0, i64 32
  %11 = load ptr, ptr %10, align 8
  %12 = icmp eq ptr %11, null
  br i1 %12, label %._crit_edge, label %.lr.ph.split.preheader

.lr.ph.split.preheader:                           ; preds = %.lr.ph
  %13 = zext i16 %9 to i64
  br label %.lr.ph.split

.lr.ph.splitthread-pre-split:                     ; preds = %19
  %.pr = load ptr, ptr %10, align 8
  br label %.lr.ph.split

.lr.ph.split:                                     ; preds = %.lr.ph.splitthread-pre-split, %.lr.ph.split.preheader
  %14 = phi ptr [ %.pr, %.lr.ph.splitthread-pre-split ], [ %11, %.lr.ph.split.preheader ]
  %indvars.iv = phi i64 [ %indvars.iv.next, %.lr.ph.splitthread-pre-split ], [ 0, %.lr.ph.split.preheader ]
  %.not10 = icmp eq ptr %14, null
  br i1 %.not10, label %19, label %15

15:                                               ; preds = %.lr.ph.split
  %16 = getelementptr inbounds nuw %"class.llvm::SDValue", ptr %2, i64 %indvars.iv
  %17 = load ptr, ptr %16, align 8
  store ptr %17, ptr %5, align 8
  %18 = call noundef zeroext i1 @_ZN4llvm9SetVectorIPNS_6SDNodeENS_11SmallVectorIS2_Lj16EEENS_8DenseSetIS2_NS_12DenseMapInfoIS2_vEEEELj16EE6insertERKS2_(ptr noundef nonnull align 8 dereferenceable(168) %14, ptr noundef nonnull align 8 dereferenceable(8) %5)
  br label %19

19:                                               ; preds = %.lr.ph.split, %15
  %indvars.iv.next = add nuw nsw i64 %indvars.iv, 1
  %.not = icmp eq i64 %indvars.iv.next, %13
  br i1 %.not, label %._crit_edge, label %.lr.ph.splitthread-pre-split, !llvm.loop !33

._crit_edge:                                      ; preds = %19, %.lr.ph, %3
  call void @llvm.lifetime.start.p0(i64 8, ptr nonnull %4)
  store ptr %1, ptr %4, align 8
  %20 = getelementptr inbounds nuw i8, ptr %0, i64 24
  %21 = load ptr, ptr %20, align 8
  %22 = getelementptr inbounds nuw i8, ptr %21, i64 8
  %23 = load ptr, ptr %22, align 8
  %24 = load ptr, ptr %21, align 8
  %25 = icmp eq ptr %23, %24
  br i1 %25, label %26, label %40

26:                                               ; preds = %._crit_edge
  %27 = getelementptr inbounds nuw i8, ptr %21, i64 20
  %28 = load i32, ptr %27, align 4
  %29 = zext i32 %28 to i64
  %30 = getelementptr inbounds nuw ptr, ptr %24, i64 %29
  %.not1315.i.i.i = icmp eq i32 %28, 0
  br i1 %.not1315.i.i.i, label %_ZN4llvm15SmallPtrSetImplIPNS_6SDNodeEE5eraseES2_.exit.i, label %.lr.ph.i.i.i

.lr.ph.i.i.i:                                     ; preds = %26, %38
  %.01116.i.i.i = phi ptr [ %39, %38 ], [ %24, %26 ]
  %31 = load ptr, ptr %.01116.i.i.i, align 8
  %32 = icmp eq ptr %31, %1
  br i1 %32, label %33, label %38

33:                                               ; preds = %.lr.ph.i.i.i
  %34 = add i32 %28, -1
  store i32 %34, ptr %27, align 4
  %35 = zext i32 %34 to i64
  %36 = getelementptr inbounds nuw ptr, ptr %24, i64 %35
  %37 = load ptr, ptr %36, align 8
  store ptr %37, ptr %.01116.i.i.i, align 8
  br label %_ZN4llvm15SmallPtrSetImplIPNS_6SDNodeEE5eraseES2_.exit.i

38:                                               ; preds = %.lr.ph.i.i.i
  %39 = getelementptr inbounds nuw i8, ptr %.01116.i.i.i, i64 8
  %.not13.i.i.i = icmp eq ptr %39, %30
  br i1 %.not13.i.i.i, label %_ZN4llvm15SmallPtrSetImplIPNS_6SDNodeEE5eraseES2_.exit.i, label %.lr.ph.i.i.i, !llvm.loop !13

40:                                               ; preds = %._crit_edge
  %41 = call noundef ptr @_ZNK4llvm19SmallPtrSetImplBase6doFindEPKv(ptr noundef nonnull align 8 dereferenceable(28) %21, ptr noundef nonnull %1) #18
  %.not.i.i.i = icmp eq ptr %41, null
  br i1 %.not.i.i.i, label %_ZN4llvm15SmallPtrSetImplIPNS_6SDNodeEE5eraseES2_.exit.i, label %42

42:                                               ; preds = %40
  store ptr inttoptr (i64 -2 to ptr), ptr %41, align 8
  %43 = getelementptr inbounds nuw i8, ptr %21, i64 24
  %44 = load i32, ptr %43, align 8
  %45 = add i32 %44, 1
  store i32 %45, ptr %43, align 8
  br label %_ZN4llvm15SmallPtrSetImplIPNS_6SDNodeEE5eraseES2_.exit.i

_ZN4llvm15SmallPtrSetImplIPNS_6SDNodeEE5eraseES2_.exit.i: ; preds = %38, %42, %40, %33, %26
  %46 = getelementptr inbounds nuw i8, ptr %0, i64 32
  %47 = load ptr, ptr %46, align 8
  %.not.i = icmp eq ptr %47, null
  br i1 %.not.i, label %_ZN12_GLOBAL__N_120SelectionDAGLegalize12ReplacedNodeEPN4llvm6SDNodeE.exit, label %48

48:                                               ; preds = %_ZN4llvm15SmallPtrSetImplIPNS_6SDNodeEE5eraseES2_.exit.i
  %49 = call noundef zeroext i1 @_ZN4llvm9SetVectorIPNS_6SDNodeENS_11SmallVectorIS2_Lj16EEENS_8DenseSetIS2_NS_12DenseMapInfoIS2_vEEEELj16EE6insertERKS2_(ptr noundef nonnull align 8 dereferenceable(168) %47, ptr noundef nonnull align 8 dereferenceable(8) %4)
  br label %_ZN12_GLOBAL__N_120SelectionDAGLegalize12ReplacedNodeEPN4llvm6SDNodeE.exit

_ZN12_GLOBAL__N_120SelectionDAGLegalize12ReplacedNodeEPN4llvm6SDNodeE.exit: ; preds = %_ZN4llvm15SmallPtrSetImplIPNS_6SDNodeEE5eraseES2_.exit.i, %48
  call void @llvm.lifetime.end.p0(i64 8, ptr nonnull %4)
  ret void
}